; Function Attrs: mustprogress uwtable
define noundef ptr @_ZN7rocksdb15NewTableBuilderERKNS_19TableBuilderOptionsEPNS_18WritableFileWriterE(ptr noundef nonnull align 8 dereferenceable(176) %tboptions, ptr noundef %file) local_unnamed_addr #4 {
entry:
  %0 = load ptr, ptr %tboptions, align 8
  %table_factory = getelementptr inbounds i8, ptr %0, i64 696
  %1 = load ptr, ptr %table_factory, align 8
  %vtable = load ptr, ptr %1, align 8
  %vfn = getelementptr inbounds i8, ptr %vtable, i64 168
  %2 = load ptr, ptr %vfn, align 8
  %call1 = tail call noundef ptr %2(ptr noundef nonnull align 8 dereferenceable(32) %1, ptr noundef nonnull align 8 dereferenceable(176) %tboptions, ptr noundef %file)
  ret ptr %call1
}